; Function Attrs: mustprogress uwtable
define dso_local void @_ZN14cmConfigureLog11BeginObjectESt17basic_string_viewIcSt11char_traitsIcEE(ptr noundef nonnull align 8 dereferenceable(584) %0, i64 %1, ptr %2) local_unnamed_addr #5 align 2 {
  %4 = alloca i8, align 1
  %5 = getelementptr inbounds nuw i8, ptr %0, i64 568
  %6 = load i32, ptr %5, align 8, !tbaa !20
  %.not.i = icmp eq i32 %6, 0
  br i1 %.not.i, label %_ZN14cmConfigureLog9BeginLineEv.exit, label %.lr.ph.i

.lr.ph.i:                                         ; preds = %3
  %7 = getelementptr inbounds nuw i8, ptr %0, i64 56
  br label %8

8:                                                ; preds = %8, %.lr.ph.i
  %.02.i = phi i32 [ 0, %.lr.ph.i ], [ %10, %8 ]
  %9 = tail call noundef nonnull align 8 dereferenceable(8) ptr @_ZSt16__ostream_insertIcSt11char_traitsIcEERSt13basic_ostreamIT_T0_ES6_PKS3_l(ptr noundef nonnull align 8 dereferenceable(8) %7, ptr noundef nonnull @.str.9, i64 noundef 2)
  %10 = add nuw i32 %.02.i, 1
  %11 = load i32, ptr %5, align 8, !tbaa !20
  %12 = icmp ult i32 %10, %11
  br i1 %12, label %8, label %_ZN14cmConfigureLog9BeginLineEv.exit, !llvm.loop !94

_ZN14cmConfigureLog9BeginLineEv.exit:             ; preds = %8, %3
  %13 = getelementptr inbounds nuw i8, ptr %0, i64 56
  %14 = tail call noundef nonnull align 8 dereferenceable(8) ptr @_ZSt16__ostream_insertIcSt11char_traitsIcEERSt13basic_ostreamIT_T0_ES6_PKS3_l(ptr noundef nonnull align 8 dereferenceable(8) %13, ptr noundef %2, i64 noundef %1)
  call void @llvm.lifetime.start.p0(i64 1, ptr nonnull %4)
  store i8 58, ptr %4, align 1, !tbaa !14
  %15 = load ptr, ptr %14, align 8, !tbaa !52
  %16 = getelementptr i8, ptr %15, i64 -24
  %17 = load i64, ptr %16, align 8
  %18 = getelementptr inbounds i8, ptr %14, i64 %17
  %19 = getelementptr inbounds nuw i8, ptr %18, i64 16
  %20 = load i64, ptr %19, align 8, !tbaa !122
  %.not.i3 = icmp eq i64 %20, 0
  br i1 %.not.i3, label %23, label %21

21:                                               ; preds = %_ZN14cmConfigureLog9BeginLineEv.exit
  %22 = call noundef nonnull align 8 dereferenceable(8) ptr @_ZSt16__ostream_insertIcSt11char_traitsIcEERSt13basic_ostreamIT_T0_ES6_PKS3_l(ptr noundef nonnull align 8 dereferenceable(8) %14, ptr noundef nonnull %4, i64 noundef 1)
  br label %_ZStlsISt11char_traitsIcEERSt13basic_ostreamIcT_ES5_c.exit

23:                                               ; preds = %_ZN14cmConfigureLog9BeginLineEv.exit
  %24 = tail call noundef nonnull align 8 dereferenceable(8) ptr @_ZNSo3putEc(ptr noundef nonnull align 8 dereferenceable(8) %14, i8 noundef signext 58)
  br label %_ZStlsISt11char_traitsIcEERSt13basic_ostreamIcT_ES5_c.exit

_ZStlsISt11char_traitsIcEERSt13basic_ostreamIcT_ES5_c.exit: ; preds = %21, %23
  call void @llvm.lifetime.end.p0(i64 1, ptr nonnull %4)
  %25 = load ptr, ptr %13, align 8, !tbaa !52
  %26 = getelementptr i8, ptr %25, i64 -24
  %27 = load i64, ptr %26, align 8
  %28 = getelementptr inbounds i8, ptr %13, i64 %27
  %29 = getelementptr inbounds nuw i8, ptr %28, i64 240
  %30 = load ptr, ptr %29, align 8, !tbaa !95
  %.not.i.i.i.i = icmp eq ptr %30, null
  br i1 %.not.i.i.i.i, label %31, label %_ZSt13__check_facetISt5ctypeIcEERKT_PS3_.exit.i.i.i

31:                                               ; preds = %_ZStlsISt11char_traitsIcEERSt13basic_ostreamIcT_ES5_c.exit
  call void @_ZSt16__throw_bad_castv() #24
  unreachable

_ZSt13__check_facetISt5ctypeIcEERKT_PS3_.exit.i.i.i: ; preds = %_ZStlsISt11char_traitsIcEERSt13basic_ostreamIcT_ES5_c.exit
  %32 = getelementptr inbounds nuw i8, ptr %30, i64 56
  %33 = load i8, ptr %32, align 8, !tbaa !108
  %.not.i1.i.i.i = icmp eq i8 %33, 0
  br i1 %.not.i1.i.i.i, label %37, label %34

34:                                               ; preds = %_ZSt13__check_facetISt5ctypeIcEERKT_PS3_.exit.i.i.i
  %35 = getelementptr inbounds nuw i8, ptr %30, i64 67
  %36 = load i8, ptr %35, align 1, !tbaa !14
  br label %_ZN14cmConfigureLog7EndLineEv.exit

37:                                               ; preds = %_ZSt13__check_facetISt5ctypeIcEERKT_PS3_.exit.i.i.i
  call void @_ZNKSt5ctypeIcE13_M_widen_initEv(ptr noundef nonnull align 8 dereferenceable(570) %30)
  %38 = load ptr, ptr %30, align 8, !tbaa !52
  %39 = getelementptr inbounds nuw i8, ptr %38, i64 48
  %40 = load ptr, ptr %39, align 8
  %41 = call noundef signext i8 %40(ptr noundef nonnull align 8 dereferenceable(570) %30, i8 noundef signext 10)
  br label %_ZN14cmConfigureLog7EndLineEv.exit

_ZN14cmConfigureLog7EndLineEv.exit:               ; preds = %34, %37
  %.0.i.i.i.i = phi i8 [ %36, %34 ], [ %41, %37 ]
  %42 = call noundef nonnull align 8 dereferenceable(8) ptr @_ZNSo3putEc(ptr noundef nonnull align 8 dereferenceable(8) %13, i8 noundef signext %.0.i.i.i.i)
  %43 = call noundef nonnull align 8 dereferenceable(8) ptr @_ZNSo5flushEv(ptr noundef nonnull align 8 dereferenceable(8) %42)
  %44 = load i32, ptr %5, align 8, !tbaa !20
  %45 = add i32 %44, 1
  store i32 %45, ptr %5, align 8, !tbaa !20
  ret void
}